; Function Attrs: mustprogress nounwind uwtable
define dso_local void @_ZN4llvm3opt8OptTableD2Ev(ptr noundef nonnull align 8 dereferenceable(88) initializes((0, 8)) %0) unnamed_addr #1 align 2 {
  store ptr getelementptr inbounds nuw inrange(-16, 24) (i8, ptr @_ZTVN4llvm3opt8OptTableE, i64 16), ptr %0, align 8
  %2 = getelementptr inbounds nuw i8, ptr %0, i64 56
  %3 = tail call noundef i64 @_ZNK4llvm15SmallVectorBaseImE4sizeEv(ptr noundef nonnull align 8 dereferenceable(32) %2) #22
  %4 = load ptr, ptr %2, align 8
  %5 = getelementptr inbounds nuw i8, ptr %0, i64 80
  %6 = icmp eq ptr %4, %5
  br i1 %6, label %_ZN4llvm11SmallStringILj8EED2Ev.exit, label %7

7:                                                ; preds = %1
  tail call void @free(ptr noundef %4) #22
  br label %_ZN4llvm11SmallStringILj8EED2Ev.exit

_ZN4llvm11SmallStringILj8EED2Ev.exit:             ; preds = %1, %7
  ret void
}